target datalayout = "e-m:e-p270:32:32-p271:32:32-p272:64:64-i64:64-i128:128-f80:128-n8:16:32:64-S128"
target triple = "x86_64-pc-linux-gnu"

%"class.vcg::CoordinateFrame" = type <{ ptr, %"class.vcg::Color4", %"class.vcg::Color4", %"class.vcg::Color4", %"class.vcg::Color4", float, float, %class.QFont, i8, i8, i8, [5 x i8] }>
%"class.vcg::Color4" = type { %"class.vcg::Point4.1" }
%"class.vcg::Point4.1" = type { [4 x i8] }
%class.QFont = type <{ %class.QExplicitlySharedDataPointer, i32, [4 x i8] }>
%class.QExplicitlySharedDataPointer = type { ptr }
%class.QString = type { ptr }

@_ZTVN3vcg15CoordinateFrameE = unnamed_addr constant { [5 x ptr] } { [5 x ptr] [ptr null, ptr @_ZTIN3vcg15CoordinateFrameE, ptr @_ZN3vcg15CoordinateFrameD2Ev, ptr @_ZN3vcg15CoordinateFrameD0Ev, ptr @_ZN3vcg15CoordinateFrame6RenderEP9QGLWidgetP8QPainter] }, align 8
@.str = private unnamed_addr constant [10 x i8] c"Helvetica\00", align 1

; Function Attrs: mustprogress nounwind uwtable
define linkonce_odr void @_ZN3vcg6Point4IhEC2Ev(ptr noundef nonnull align 1 dereferenceable(4) %0) unnamed_addr #0 comdat align 2 {
  %2 = alloca ptr, align 8
  store ptr %0, ptr %2, align 8
  ret void
}

; Function Attrs: mustprogress uwtable
define linkonce_odr void @_ZN7QStringC2EPKc(ptr noundef nonnull align 8 dereferenceable(8) %0, ptr noundef %1) unnamed_addr #1 comdat align 2 {
  %3 = alloca ptr, align 8
  %4 = alloca ptr, align 8
  store ptr %0, ptr %3, align 8
  store ptr %1, ptr %4, align 8
  %5 = load ptr, ptr %3, align 8
  %6 = getelementptr inbounds %class.QString, ptr %5, i32 0, i32 0
  %7 = load ptr, ptr %4, align 8
  %8 = load ptr, ptr %4, align 8
  %9 = icmp ne ptr %8, null
  br i1 %9, label %10, label %14

10:                                               ; preds = %2
  %11 = load ptr, ptr %4, align 8
  %12 = call i64 @strlen(ptr noundef %11) #18
  %13 = trunc i64 %12 to i32
  br label %15

14:                                               ; preds = %2
  br label %15

15:                                               ; preds = %14, %10
  %16 = phi i32 [ %13, %10 ], [ -1, %14 ]
  %17 = call noundef ptr @_ZN7QString16fromAscii_helperEPKci(ptr noundef %7, i32 noundef %16)
  store ptr %17, ptr %6, align 8
  ret void
}

; Function Attrs: mustprogress uwtable
define linkonce_odr void @_ZN3vcg6Color4IhEC2ENS1_13ColorConstantE(ptr noundef nonnull align 1 dereferenceable(4) %0, i32 noundef %1) unnamed_addr #1 comdat align 2 {
  %3 = alloca ptr, align 8
  %4 = alloca i32, align 4
  store ptr %0, ptr %3, align 8
  store i32 %1, ptr %4, align 4
  %5 = load ptr, ptr %3, align 8
  call void @_ZN3vcg6Point4IhEC2Ev(ptr noundef nonnull align 1 dereferenceable(4) %5)
  %6 = load i32, ptr %4, align 4
  store i32 %6, ptr %5, align 4
  ret void
}

; Function Attrs: mustprogress uwtable
define void @_ZN3vcg15CoordinateFrameC2Ef(ptr noundef nonnull align 8 dereferenceable(51) %0, float noundef %1) unnamed_addr #1 align 2 personality ptr @__gxx_personality_v0 {
  %3 = alloca ptr, align 8
  %4 = alloca float, align 4
  %5 = alloca %class.QString, align 8
  %6 = alloca ptr, align 8
  %7 = alloca i32, align 4
  store ptr %0, ptr %3, align 8
  store float %1, ptr %4, align 4
  %8 = load ptr, ptr %3, align 8
  store ptr getelementptr inbounds ({ [5 x ptr] }, ptr @_ZTVN3vcg15CoordinateFrameE, i32 0, i32 0, i32 2), ptr %8, align 8
  %9 = getelementptr inbounds %"class.vcg::CoordinateFrame", ptr %8, i32 0, i32 1
  call void @_ZN3vcg6Color4IhEC2ENS1_13ColorConstantE(ptr noundef nonnull align 1 dereferenceable(4) %9, i32 noundef -1)
  %10 = getelementptr inbounds %"class.vcg::CoordinateFrame", ptr %8, i32 0, i32 2
  call void @_ZN3vcg6Color4IhEC2ENS1_13ColorConstantE(ptr noundef nonnull align 1 dereferenceable(4) %10, i32 noundef -16776961)
  %11 = getelementptr inbounds %"class.vcg::CoordinateFrame", ptr %8, i32 0, i32 3
  call void @_ZN3vcg6Color4IhEC2ENS1_13ColorConstantE(ptr noundef nonnull align 1 dereferenceable(4) %11, i32 noundef -16711936)
  %12 = getelementptr inbounds %"class.vcg::CoordinateFrame", ptr %8, i32 0, i32 4
  call void @_ZN3vcg6Color4IhEC2ENS1_13ColorConstantE(ptr noundef nonnull align 1 dereferenceable(4) %12, i32 noundef -65536)
  %13 = getelementptr inbounds %"class.vcg::CoordinateFrame", ptr %8, i32 0, i32 5
  %14 = load float, ptr %4, align 4
  store float %14, ptr %13, align 8
  %15 = getelementptr inbounds %"class.vcg::CoordinateFrame", ptr %8, i32 0, i32 6
  store float 2.000000e+00, ptr %15, align 4
  %16 = getelementptr inbounds %"class.vcg::CoordinateFrame", ptr %8, i32 0, i32 7
  call void @_ZN5QFontC1Ev(ptr noundef nonnull align 8 dereferenceable(12) %16)
  %17 = getelementptr inbounds %"class.vcg::CoordinateFrame", ptr %8, i32 0, i32 8
  store i8 1, ptr %17, align 8
  %18 = getelementptr inbounds %"class.vcg::CoordinateFrame", ptr %8, i32 0, i32 9
  store i8 1, ptr %18, align 1
  %19 = getelementptr inbounds %"class.vcg::CoordinateFrame", ptr %8, i32 0, i32 10
  store i8 0, ptr %19, align 2
  %20 = getelementptr inbounds %"class.vcg::CoordinateFrame", ptr %8, i32 0, i32 7
  invoke void @_ZN7QStringC2EPKc(ptr noundef nonnull align 8 dereferenceable(8) %5, ptr noundef @.str)
          to label %21 unwind label %23

21:                                               ; preds = %2
  invoke void @_ZN5QFont9setFamilyERK7QString(ptr noundef nonnull align 8 dereferenceable(12) %20, ptr noundef nonnull align 8 dereferenceable(8) %5)
          to label %22 unwind label %27

22:                                               ; preds = %21
  call void @_ZN7QStringD2Ev(ptr noundef nonnull align 8 dereferenceable(8) %5) #7
  ret void

23:                                               ; preds = %2
  %24 = landingpad { ptr, i32 }
          cleanup
  %25 = extractvalue { ptr, i32 } %24, 0
  store ptr %25, ptr %6, align 8
  %26 = extractvalue { ptr, i32 } %24, 1
  store i32 %26, ptr %7, align 4
  br label %31

27:                                               ; preds = %21
  %28 = landingpad { ptr, i32 }
          cleanup
  %29 = extractvalue { ptr, i32 } %28, 0
  store ptr %29, ptr %6, align 8
  %30 = extractvalue { ptr, i32 } %28, 1
  store i32 %30, ptr %7, align 4
  call void @_ZN7QStringD2Ev(ptr noundef nonnull align 8 dereferenceable(8) %5) #7
  br label %31

31:                                               ; preds = %27, %23
  call void @_ZN5QFontD1Ev(ptr noundef nonnull align 8 dereferenceable(12) %16) #7
  br label %32

32:                                               ; preds = %31
  %33 = load ptr, ptr %6, align 8
  %34 = load i32, ptr %7, align 4
  %35 = insertvalue { ptr, i32 } poison, ptr %33, 0
  %36 = insertvalue { ptr, i32 } %35, i32 %34, 1
  resume { ptr, i32 } %36
}