; Function Attrs: mustprogress uwtable
define void @_ZN3vcg15CoordinateFrameC2Ef(ptr noundef nonnull align 8 dereferenceable(51) %0, float noundef %1) unnamed_addr #1 align 2 personality ptr @__gxx_personality_v0 {
  %3 = alloca %class.QString, align 8
  store ptr getelementptr inbounds ({ [5 x ptr] }, ptr @_ZTVN3vcg15CoordinateFrameE, i64 0, i32 0, i64 2), ptr %0, align 8
  %4 = getelementptr inbounds i8, ptr %0, i64 8
  store <4 x i32> <i32 -1, i32 -16776961, i32 -16711936, i32 -65536>, ptr %4, align 8
  %5 = getelementptr inbounds i8, ptr %0, i64 24
  store float %1, ptr %5, align 8
  %6 = getelementptr inbounds i8, ptr %0, i64 28
  store float 2.000000e+00, ptr %6, align 4
  %7 = getelementptr inbounds i8, ptr %0, i64 32
  tail call void @_ZN5QFontC1Ev(ptr noundef nonnull align 8 dereferenceable(12) %7)
  %8 = getelementptr inbounds i8, ptr %0, i64 48
  store i8 1, ptr %8, align 8
  %9 = getelementptr inbounds i8, ptr %0, i64 49
  store i8 1, ptr %9, align 1
  %10 = getelementptr inbounds i8, ptr %0, i64 50
  store i8 0, ptr %10, align 2
  %11 = invoke noundef ptr @_ZN7QString16fromAscii_helperEPKci(ptr noundef nonnull @.str, i32 noundef 9)
          to label %12 unwind label %18

12:                                               ; preds = %2
  store ptr %11, ptr %3, align 8
  invoke void @_ZN5QFont9setFamilyERK7QString(ptr noundef nonnull align 8 dereferenceable(12) %7, ptr noundef nonnull align 8 dereferenceable(8) %3)
          to label %13 unwind label %20

13:                                               ; preds = %12
  %14 = load ptr, ptr %3, align 8
  %15 = load atomic i32, ptr %14 monotonic, align 4
  switch i32 %15, label %_ZN9QtPrivate8RefCount5derefEv.exit.i [
    i32 0, label %_ZN9QtPrivate8RefCount5derefEv.exit.thread2.i
    i32 -1, label %_ZN7QStringD2Ev.exit
  ]

_ZN9QtPrivate8RefCount5derefEv.exit.i:            ; preds = %13
  %16 = atomicrmw sub ptr %14, i32 1 seq_cst, align 4
  %.not.i = icmp eq i32 %16, 1
  br i1 %.not.i, label %_ZN9QtPrivate8RefCount5derefEv.exit._ZN9QtPrivate8RefCount5derefEv.exit.thread2_crit_edge.i, label %_ZN7QStringD2Ev.exit

_ZN9QtPrivate8RefCount5derefEv.exit._ZN9QtPrivate8RefCount5derefEv.exit.thread2_crit_edge.i: ; preds = %_ZN9QtPrivate8RefCount5derefEv.exit.i
  %.pre.i = load ptr, ptr %3, align 8
  br label %_ZN9QtPrivate8RefCount5derefEv.exit.thread2.i

_ZN9QtPrivate8RefCount5derefEv.exit.thread2.i:    ; preds = %_ZN9QtPrivate8RefCount5derefEv.exit._ZN9QtPrivate8RefCount5derefEv.exit.thread2_crit_edge.i, %13
  %17 = phi ptr [ %.pre.i, %_ZN9QtPrivate8RefCount5derefEv.exit._ZN9QtPrivate8RefCount5derefEv.exit.thread2_crit_edge.i ], [ %14, %13 ]
  call void @_ZN10QArrayData10deallocateEPS_mm(ptr noundef %17, i64 noundef 2, i64 noundef 8) #24
  br label %_ZN7QStringD2Ev.exit

_ZN7QStringD2Ev.exit:                             ; preds = %13, %_ZN9QtPrivate8RefCount5derefEv.exit.i, %_ZN9QtPrivate8RefCount5derefEv.exit.thread2.i
  ret void

18:                                               ; preds = %2
  %19 = landingpad { ptr, i32 }
          cleanup
  br label %22

20:                                               ; preds = %12
  %21 = landingpad { ptr, i32 }
          cleanup
  call void @_ZN7QStringD2Ev(ptr noundef nonnull align 8 dereferenceable(8) %3) #24
  br label %22

22:                                               ; preds = %20, %18
  %.pn = phi { ptr, i32 } [ %21, %20 ], [ %19, %18 ]
  call void @_ZN5QFontD1Ev(ptr noundef nonnull align 8 dereferenceable(12) %7) #24
  resume { ptr, i32 } %.pn
}